; Function Attrs: mustprogress optsize uwtable
define internal void @_ZZL28nanobind_init_test_issue_extRN8nanobind7module_EEN5Model9add_paramERKNSt7__cxx1112basic_stringIcSt11char_traitsIcESaIcEEESt10shared_ptrIZL28nanobind_init_test_issue_extS1_E5ParamE(ptr noundef nonnull align 8 dereferenceable(64) %0, ptr noundef nonnull align 8 dereferenceable(32) %1, ptr noundef captures(none) %2) #0 align 2 {
  %4 = alloca %"class.std::__shared_ptr", align 8
  %5 = getelementptr inbounds nuw i8, ptr %0, i64 8
  %6 = tail call fastcc noundef nonnull align 8 dereferenceable(16) ptr @_ZNSt13unordered_mapINSt7__cxx1112basic_stringIcSt11char_traitsIcESaIcEEESt10shared_ptrIZL28nanobind_init_test_issue_extRN8nanobind7module_EE5ParamESt4hashIS5_ESt8equal_toIS5_ESaISt4pairIKS5_SB_EEEixERSH_(ptr noundef nonnull align 8 dereferenceable(56) %5, ptr noundef nonnull align 8 dereferenceable(32) %1) #26
  call void @llvm.lifetime.start.p0(i64 16, ptr nonnull %4) #27
  %7 = load ptr, ptr %2, align 8, !tbaa !79
  %8 = getelementptr inbounds nuw i8, ptr %4, i64 8
  %9 = getelementptr inbounds nuw i8, ptr %2, i64 8
  %10 = load ptr, ptr %9, align 8, !tbaa !84
  tail call void @llvm.memset.p0.i64(ptr noundef nonnull align 8 dereferenceable(16) %2, i8 0, i64 16, i1 false)
  %11 = load ptr, ptr %6, align 8, !tbaa !86
  store ptr %11, ptr %4, align 8, !tbaa !86
  store ptr %7, ptr %6, align 8, !tbaa !86
  %12 = getelementptr inbounds nuw i8, ptr %6, i64 8
  %13 = load ptr, ptr %12, align 8, !tbaa !84
  store ptr %10, ptr %12, align 8, !tbaa !84
  store ptr %13, ptr %8, align 8, !tbaa !84
  call void @_ZNSt14__shared_countILN9__gnu_cxx12_Lock_policyE2EED2Ev(ptr noundef nonnull align 8 dereferenceable(8) %8) #28
  call void @llvm.lifetime.end.p0(i64 16, ptr nonnull %4) #27
  ret void
}